target datalayout = "e-m:e-p270:32:32-p271:32:32-p272:64:64-i64:64-i128:128-f80:128-n8:16:32:64-S128"
target triple = "x86_64-pc-linux-gnu"

@hf_etch_typecode = internal global i32 0, align 4
@hf_etch_symbol = internal global i32 0, align 4
@.str.70 = private unnamed_addr constant [1 x i8] zeroinitializer, align 1
@gbl_symbols_vs_ext = internal global ptr null, align 8
@gbl_symbol_buffer = internal global ptr null, align 8
@gbl_have_symbol = internal global i8 0, align 1
@.str.72 = private unnamed_addr constant [3 x i8] c"%s\00", align 1
@.str.73 = private unnamed_addr constant [13 x i8] c" (0x%08x) %s\00", align 1

; Function Attrs: nounwind null_pointer_is_valid sspstrong uwtable
define internal i32 @get_byte_length(i8 noundef zeroext %0) #3 {
  %2 = alloca i32, align 4
  %3 = alloca i8, align 1
  store i8 %0, ptr %3, align 1
  %4 = load i8, ptr %3, align 1
  %5 = zext i8 %4 to i32
  switch i32 %5, label %12 [
    i32 128, label %6
    i32 129, label %6
    i32 130, label %6
    i32 131, label %6
    i32 146, label %6
    i32 192, label %6
    i32 127, label %6
    i32 132, label %7
    i32 133, label %8
    i32 134, label %9
    i32 136, label %9
    i32 135, label %10
    i32 137, label %10
    i32 139, label %11
    i32 145, label %11
    i32 147, label %11
    i32 148, label %11
    i32 149, label %11
    i32 150, label %11
  ]

6:                                                ; preds = %1, %1, %1, %1, %1, %1, %1
  store i32 0, ptr %2, align 4
  br label %13

7:                                                ; preds = %1
  store i32 1, ptr %2, align 4
  br label %13

8:                                                ; preds = %1
  store i32 2, ptr %2, align 4
  br label %13

9:                                                ; preds = %1, %1
  store i32 4, ptr %2, align 4
  br label %13

10:                                               ; preds = %1, %1
  store i32 8, ptr %2, align 4
  br label %13

11:                                               ; preds = %1, %1, %1, %1, %1, %1
  store i32 -1, ptr %2, align 4
  br label %13

12:                                               ; preds = %1
  store i32 0, ptr %2, align 4
  br label %13

13:                                               ; preds = %12, %11, %10, %9, %8, %7, %6
  %14 = load i32, ptr %2, align 4
  ret i32 %14
}

; Function Attrs: null_pointer_is_valid sspstrong uwtable
define internal zeroext i8 @read_type(ptr noundef %0, ptr noundef %1, ptr noundef %2) #0 {
  %4 = alloca ptr, align 8
  %5 = alloca ptr, align 8
  %6 = alloca ptr, align 8
  %7 = alloca i32, align 4
  store ptr %0, ptr %4, align 8
  store ptr %1, ptr %5, align 8
  store ptr %2, ptr %6, align 8
  call void @llvm.lifetime.start.p0(i64 4, ptr %7) #8
  %8 = load ptr, ptr %5, align 8
  %9 = load ptr, ptr %4, align 8
  %10 = load i32, ptr %9, align 4
  %11 = call zeroext i8 @tvb_get_uint8(ptr noundef %8, i32 noundef %10)
  %12 = zext i8 %11 to i32
  store i32 %12, ptr %7, align 4
  %13 = load ptr, ptr %6, align 8
  %14 = load i32, ptr @hf_etch_typecode, align 4
  %15 = load ptr, ptr %5, align 8
  %16 = load ptr, ptr %4, align 8
  %17 = load i32, ptr %16, align 4
  %18 = call ptr @proto_tree_add_item(ptr noundef %13, i32 noundef %14, ptr noundef %15, i32 noundef %17, i32 noundef 1, i32 noundef 0)
  %19 = load ptr, ptr %4, align 8
  %20 = load i32, ptr %19, align 4
  %21 = add i32 %20, 1
  store i32 %21, ptr %19, align 4
  %22 = load i32, ptr %7, align 4
  %23 = trunc i32 %22 to i8
  call void @llvm.lifetime.end.p0(i64 4, ptr %7) #8
  ret i8 %23
}

; Function Attrs: null_pointer_is_valid sspstrong uwtable
define internal void @read_number(ptr noundef %0, ptr noundef %1, ptr noundef %2, i32 noundef %3, i8 noundef zeroext %4) #0 {
  %6 = alloca ptr, align 8
  %7 = alloca ptr, align 8
  %8 = alloca ptr, align 8
  %9 = alloca i32, align 4
  %10 = alloca i8, align 1
  %11 = alloca i32, align 4
  %12 = alloca ptr, align 8
  %13 = alloca ptr, align 8
  %14 = alloca i32, align 4
  store ptr %0, ptr %6, align 8
  store ptr %1, ptr %7, align 8
  store ptr %2, ptr %8, align 8
  store i32 %3, ptr %9, align 4
  store i8 %4, ptr %10, align 1
  call void @llvm.lifetime.start.p0(i64 4, ptr %11) #8
  %15 = load ptr, ptr %6, align 8
  %16 = load ptr, ptr %7, align 8
  %17 = load ptr, ptr %8, align 8
  %18 = call zeroext i8 @read_type(ptr noundef %15, ptr noundef %16, ptr noundef %17)
  %19 = load i8, ptr %10, align 1
  %20 = call i32 @get_byte_length(i8 noundef zeroext %19)
  store i32 %20, ptr %11, align 4
  %21 = load i32, ptr %11, align 4
  %22 = icmp sgt i32 %21, 0
  br i1 %22, label %23, label %62

23:                                               ; preds = %5
  call void @llvm.lifetime.start.p0(i64 8, ptr %12) #8
  call void @llvm.lifetime.start.p0(i64 8, ptr %13) #8
  store ptr null, ptr %13, align 8
  call void @llvm.lifetime.start.p0(i64 4, ptr %14) #8
  store i32 0, ptr %14, align 4
  %24 = call ptr @wmem_packet_scope()
  %25 = call noalias ptr @wmem_strbuf_new(ptr noundef %24, ptr noundef @.str.70)
  store ptr %25, ptr @gbl_symbol_buffer, align 8
  %26 = load i32, ptr %11, align 4
  %27 = icmp eq i32 %26, 4
  br i1 %27, label %28, label %43

28:                                               ; preds = %23
  %29 = load ptr, ptr %7, align 8
  %30 = load ptr, ptr %6, align 8
  %31 = load i32, ptr %30, align 4
  %32 = call i32 @tvb_get_ntohl(ptr noundef %29, i32 noundef %31)
  store i32 %32, ptr %14, align 4
  %33 = load i32, ptr %14, align 4
  %34 = load ptr, ptr @gbl_symbols_vs_ext, align 8
  %35 = call ptr @try_val_to_str_ext(i32 noundef %33, ptr noundef %34)
  store ptr %35, ptr %13, align 8
  %36 = load ptr, ptr %13, align 8
  %37 = icmp ne ptr %36, null
  br i1 %37, label %38, label %42

38:                                               ; preds = %28
  %39 = load i32, ptr @hf_etch_symbol, align 4
  store i32 %39, ptr %9, align 4
  store i8 1, ptr @gbl_have_symbol, align 1
  %40 = load ptr, ptr @gbl_symbol_buffer, align 8
  %41 = load ptr, ptr %13, align 8
  call void (ptr, ptr, ...) @wmem_strbuf_append_printf(ptr noundef %40, ptr noundef @.str.72, ptr noundef %41)
  br label %42

42:                                               ; preds = %38, %28
  br label %43

43:                                               ; preds = %42, %23
  %44 = load ptr, ptr %8, align 8
  %45 = load i32, ptr %9, align 4
  %46 = load ptr, ptr %7, align 8
  %47 = load ptr, ptr %6, align 8
  %48 = load i32, ptr %47, align 4
  %49 = load i32, ptr %11, align 4
  %50 = call ptr @proto_tree_add_item(ptr noundef %44, i32 noundef %45, ptr noundef %46, i32 noundef %48, i32 noundef %49, i32 noundef 0)
  store ptr %50, ptr %12, align 8
  %51 = load i32, ptr %11, align 4
  %52 = load ptr, ptr %6, align 8
  %53 = load i32, ptr %52, align 4
  %54 = add i32 %53, %51
  store i32 %54, ptr %52, align 4
  %55 = load ptr, ptr %13, align 8
  %56 = icmp ne ptr %55, null
  br i1 %56, label %57, label %61

57:                                               ; preds = %43
  %58 = load ptr, ptr %12, align 8
  %59 = load i32, ptr %14, align 4
  %60 = load ptr, ptr %13, align 8
  call void (ptr, ptr, ...) @proto_item_append_text(ptr noundef %58, ptr noundef @.str.73, i32 noundef %59, ptr noundef %60)
  br label %61

61:                                               ; preds = %57, %43
  call void @llvm.lifetime.end.p0(i64 4, ptr %14) #8
  call void @llvm.lifetime.end.p0(i64 8, ptr %13) #8
  call void @llvm.lifetime.end.p0(i64 8, ptr %12) #8
  br label %62

62:                                               ; preds = %61, %5
  call void @llvm.lifetime.end.p0(i64 4, ptr %11) #8
  ret void
}