; Function Attrs: null_pointer_is_valid sspstrong uwtable
define internal fastcc void @read_number(ptr noundef captures(none) %0, ptr noundef %1, ptr noundef %2, i32 noundef %3, i8 noundef zeroext %4) unnamed_addr #0 {
  %6 = load i32, ptr %0, align 4
  %7 = tail call zeroext i8 @tvb_get_uint8(ptr noundef %1, i32 noundef %6)
  %8 = load i32, ptr @hf_etch_typecode, align 4
  %9 = load i32, ptr %0, align 4
  %10 = tail call ptr @proto_tree_add_item(ptr noundef %2, i32 noundef %8, ptr noundef %1, i32 noundef %9, i32 noundef 1, i32 noundef 0)
  %11 = load i32, ptr %0, align 4
  %12 = add i32 %11, 1
  store i32 %12, ptr %0, align 4
  switch i8 %4, label %get_byte_length.exit [
    i8 -121, label %15
    i8 -120, label %14
    i8 -122, label %14
    i8 -123, label %13
    i8 -124, label %16
    i8 -119, label %15
  ]

13:                                               ; preds = %5
  br label %16

14:                                               ; preds = %5, %5
  br label %16

15:                                               ; preds = %5, %5
  br label %16

16:                                               ; preds = %5, %15, %14, %13
  %17 = phi i1 [ false, %13 ], [ true, %14 ], [ false, %15 ], [ false, %5 ]
  %.0.i.ph = phi i32 [ 2, %13 ], [ 4, %14 ], [ 8, %15 ], [ 1, %5 ]
  %18 = tail call ptr @wmem_packet_scope()
  %19 = tail call noalias ptr @wmem_strbuf_new(ptr noundef %18, ptr noundef nonnull @.str.70)
  store ptr %19, ptr @gbl_symbol_buffer, align 8
  br i1 %17, label %20, label %28

20:                                               ; preds = %16
  %21 = load i32, ptr %0, align 4
  %22 = tail call i32 @tvb_get_ntohl(ptr noundef %1, i32 noundef %21)
  %23 = load ptr, ptr @gbl_symbols_vs_ext, align 8
  %24 = tail call ptr @try_val_to_str_ext(i32 noundef %22, ptr noundef %23)
  %.not = icmp eq ptr %24, null
  br i1 %.not, label %28, label %25

25:                                               ; preds = %20
  %26 = load i32, ptr @hf_etch_symbol, align 4
  store i1 true, ptr @gbl_have_symbol, align 1
  %27 = load ptr, ptr @gbl_symbol_buffer, align 8
  tail call void (ptr, ptr, ...) @wmem_strbuf_append_printf(ptr noundef %27, ptr noundef nonnull @.str.72, ptr noundef nonnull %24)
  br label %28

28:                                               ; preds = %20, %25, %16
  %.022 = phi i32 [ %26, %25 ], [ %3, %20 ], [ %3, %16 ]
  %.021 = phi ptr [ %24, %25 ], [ null, %20 ], [ null, %16 ]
  %.0 = phi i32 [ %22, %25 ], [ %22, %20 ], [ 0, %16 ]
  %29 = load i32, ptr %0, align 4
  %30 = tail call ptr @proto_tree_add_item(ptr noundef %2, i32 noundef %.022, ptr noundef %1, i32 noundef %29, i32 noundef %.0.i.ph, i32 noundef 0)
  %31 = load i32, ptr %0, align 4
  %32 = add i32 %31, %.0.i.ph
  store i32 %32, ptr %0, align 4
  %.not25 = icmp eq ptr %.021, null
  br i1 %.not25, label %get_byte_length.exit, label %33

33:                                               ; preds = %28
  tail call void (ptr, ptr, ...) @proto_item_append_text(ptr noundef %30, ptr noundef nonnull @.str.73, i32 noundef %.0, ptr noundef nonnull %.021)
  br label %get_byte_length.exit

get_byte_length.exit:                             ; preds = %5, %28, %33
  ret void
}